; Function Attrs: mustprogress uwtable
define void @_ZN19OpenColorIO_v2_5dev9FileRules10removeRuleEm(ptr noundef nonnull readonly align 8 captures(none) dereferenceable(16) %0, i64 noundef %1) local_unnamed_addr #0 align 2 {
  %3 = getelementptr inbounds nuw i8, ptr %0, i64 8
  %4 = load ptr, ptr %3, align 8, !tbaa !6
  tail call void @_ZNK19OpenColorIO_v2_5dev9FileRules4Impl16validatePositionEmNS1_14DefaultAllowedE(ptr noundef nonnull align 8 dereferenceable(24) %4, i64 noundef %1, i32 noundef 1)
  %5 = load ptr, ptr %3, align 8, !tbaa !6
  %6 = load ptr, ptr %5, align 8, !tbaa !35
  %7 = getelementptr inbounds %"class.std::shared_ptr.0", ptr %6, i64 %1
  %8 = tail call ptr @_ZNSt6vectorISt10shared_ptrIN19OpenColorIO_v2_5dev8FileRuleEESaIS3_EE8_M_eraseEN9__gnu_cxx17__normal_iteratorIPS3_S5_EE(ptr noundef nonnull align 8 dereferenceable(24) %5, ptr %7)
  ret void
}